target datalayout = "e-m:e-p270:32:32-p271:32:32-p272:64:64-i64:64-i128:128-f80:128-n8:16:32:64-S128"
target triple = "x86_64-pc-linux-gnu"

%union.pthread_mutex_t = type { %struct.__pthread_mutex_s }
%struct.__pthread_mutex_s = type { i32, i32, i32, i32, i32, i16, i16, %struct.__pthread_internal_list }
%struct.__pthread_internal_list = type { ptr, ptr }
%struct.settings = type { i64, i32, i32, i32, ptr, i32, i32, i32, ptr, ptr, i32, double, i32, i32, i32, i8, i32, i32, i8, i32, i32, i32, i32, i32, i32, i8, i8, i8, i8, i8, i8, i8, i32, i32, double, double, i32, i32, i8, i32, i8, i8, ptr, i32, i32, i32, i32, double, double, i32, i8, i32, i32, i32, i32, i32, i8, i8, i8, ptr, i32, i32, i32, i32, i32, i32, i32, i32, i32, i32, double, i8, i32, i32, ptr, i32 }

@settings = external global %struct.settings, align 8
@stderr = external global ptr, align 8
@lru_maintainer_lock = internal global %union.pthread_mutex_t zeroinitializer, align 8
@do_run_lru_maintainer_thread = internal global i32 0, align 4
@lru_maintainer_tid = internal global i64 0, align 8
@.str.47 = private unnamed_addr constant [40 x i8] c"Can't create LRU maintainer thread: %s\0A\00", align 1
@.str.48 = private unnamed_addr constant [12 x i8] c"mc-lrumaint\00", align 1

; Function Attrs: nounwind uwtable
define dso_local i32 @start_lru_maintainer_thread(ptr noundef %0) #0 {
  %2 = alloca i32, align 4
  %3 = alloca ptr, align 8
  %4 = alloca i32, align 4
  %5 = alloca i32, align 4
  store ptr %0, ptr %3, align 8, !tbaa !33
  call void @llvm.lifetime.start.p0(i64 4, ptr %4) #9
  %6 = call i32 @pthread_mutex_lock(ptr noundef @lru_maintainer_lock) #9
  store volatile i32 1, ptr @do_run_lru_maintainer_thread, align 4, !tbaa !4
  store i8 1, ptr getelementptr inbounds nuw (%struct.settings, ptr @settings, i32 0, i32 28), align 1, !tbaa !91
  %7 = load ptr, ptr %3, align 8, !tbaa !33
  %8 = call i32 @pthread_create(ptr noundef @lru_maintainer_tid, ptr noundef null, ptr noundef @lru_maintainer_thread, ptr noundef %7) #9
  store i32 %8, ptr %4, align 4, !tbaa !4
  %9 = icmp ne i32 %8, 0
  br i1 %9, label %10, label %16

10:                                               ; preds = %1
  %11 = load ptr, ptr @stderr, align 8, !tbaa !109
  %12 = load i32, ptr %4, align 4, !tbaa !4
  %13 = call ptr @strerror(i32 noundef %12) #9
  %14 = call i32 (ptr, ptr, ...) @fprintf(ptr noundef %11, ptr noundef @.str.47, ptr noundef %13) #9
  %15 = call i32 @pthread_mutex_unlock(ptr noundef @lru_maintainer_lock) #9
  store i32 -1, ptr %2, align 4
  store i32 1, ptr %5, align 4
  br label %19

16:                                               ; preds = %1
  %17 = load i64, ptr @lru_maintainer_tid, align 8, !tbaa !10
  call void @thread_setname(i64 noundef %17, ptr noundef @.str.48)
  %18 = call i32 @pthread_mutex_unlock(ptr noundef @lru_maintainer_lock) #9
  store i32 0, ptr %2, align 4
  store i32 1, ptr %5, align 4
  br label %19

19:                                               ; preds = %16, %10
  call void @llvm.lifetime.end.p0(i64 4, ptr %4) #9
  %20 = load i32, ptr %2, align 4
  ret i32 %20
}