; Function Attrs: nounwind uwtable
define dso_local range(i32 -1, 1) i32 @start_lru_maintainer_thread(ptr noundef %0) local_unnamed_addr #0 {
  %2 = tail call i32 @pthread_mutex_lock(ptr noundef nonnull @lru_maintainer_lock) #19
  store volatile i32 1, ptr @do_run_lru_maintainer_thread, align 4, !tbaa !22
  store i8 1, ptr getelementptr inbounds nuw (i8, ptr @settings, i64 135), align 1, !tbaa !84
  %3 = tail call i32 @pthread_create(ptr noundef nonnull @lru_maintainer_tid, ptr noundef null, ptr noundef nonnull @lru_maintainer_thread, ptr noundef %0) #19
  %.not = icmp eq i32 %3, 0
  br i1 %.not, label %8, label %4

4:                                                ; preds = %1
  %5 = load ptr, ptr @stderr, align 8, !tbaa !95
  %6 = tail call ptr @strerror(i32 noundef %3) #19
  %7 = tail call i32 (ptr, ptr, ...) @fprintf(ptr noundef %5, ptr noundef nonnull @.str.47, ptr noundef %6) #23
  br label %10

8:                                                ; preds = %1
  %9 = load i64, ptr @lru_maintainer_tid, align 8, !tbaa !14
  tail call void @thread_setname(i64 noundef %9, ptr noundef nonnull @.str.48) #19
  br label %10

10:                                               ; preds = %8, %4
  %.0 = phi i32 [ -1, %4 ], [ 0, %8 ]
  %11 = tail call i32 @pthread_mutex_unlock(ptr noundef nonnull @lru_maintainer_lock) #19
  ret i32 %.0
}